target datalayout = "e-m:e-p270:32:32-p271:32:32-p272:64:64-i64:64-i128:128-f80:128-n8:16:32:64-S128"
target triple = "x86_64-pc-linux-gnu"

%struct.rb_data_type_struct = type { ptr, %struct.anon, ptr, ptr, i64 }
%struct.anon = type { ptr, ptr, ptr, ptr, [1 x ptr] }
%struct.time_object = type { i64, %struct.vtm }
%struct.vtm = type { i64, i64, i64, i64, i64 }

@time_data_type = internal constant %struct.rb_data_type_struct { ptr @.str.96, %struct.anon { ptr @time_mark, ptr inttoptr (i64 -1 to ptr), ptr null, ptr null, [1 x ptr] zeroinitializer }, ptr null, ptr null, i64 291 }, align 8
@rb_eTypeError = external global i64, align 8
@.str.92 = private unnamed_addr constant [19 x i8] c"uninitialized %li\0B\00", align 1

; Function Attrs: nounwind sspstrong uwtable
define internal ptr @get_timeval(i64 noundef %0) #0 {
  %2 = alloca i64, align 8
  %3 = alloca ptr, align 8
  store i64 %0, ptr %2, align 8, !tbaa !11
  call void @llvm.lifetime.start.p0(i64 8, ptr %3) #22
  %4 = load i64, ptr %2, align 8, !tbaa !11
  %5 = call ptr @rb_check_typeddata(i64 noundef %4, ptr noundef @time_data_type)
  store ptr %5, ptr %3, align 8, !tbaa !18
  %6 = load ptr, ptr %3, align 8, !tbaa !18
  %7 = getelementptr inbounds nuw %struct.time_object, ptr %6, i32 0, i32 1
  %8 = getelementptr inbounds nuw %struct.vtm, ptr %7, i32 0, i32 4
  %9 = load i64, ptr %8, align 8
  %10 = lshr i64 %9, 43
  %11 = and i64 %10, 7
  %12 = trunc i64 %11 to i32
  %13 = icmp ne i32 %12, 3
  br i1 %13, label %18, label %14

14:                                               ; preds = %1
  %15 = load i64, ptr @rb_eTypeError, align 8, !tbaa !11
  %16 = load i64, ptr %2, align 8, !tbaa !11
  %17 = call i64 @rb_obj_class(i64 noundef %16)
  call void (i64, ptr, ...) @rb_raise(i64 noundef %15, ptr noundef @.str.92, i64 noundef %17) #23
  unreachable

18:                                               ; preds = %1
  %19 = load ptr, ptr %3, align 8, !tbaa !18
  call void @llvm.lifetime.end.p0(i64 8, ptr %3) #22
  ret ptr %19
}

; Function Attrs: nounwind sspstrong uwtable
define internal i64 @time_utc_p(i64 noundef %0) #0 {
  %2 = alloca i64, align 8
  %3 = alloca ptr, align 8
  store i64 %0, ptr %2, align 8, !tbaa !11
  call void @llvm.lifetime.start.p0(i64 8, ptr %3) #22
  %4 = load i64, ptr %2, align 8, !tbaa !11
  %5 = call ptr @get_timeval(i64 noundef %4)
  store ptr %5, ptr %3, align 8, !tbaa !18
  %6 = load ptr, ptr %3, align 8, !tbaa !18
  %7 = getelementptr inbounds nuw %struct.time_object, ptr %6, i32 0, i32 1
  %8 = getelementptr inbounds nuw %struct.vtm, ptr %7, i32 0, i32 4
  %9 = load i64, ptr %8, align 8
  %10 = lshr i64 %9, 43
  %11 = and i64 %10, 7
  %12 = trunc i64 %11 to i32
  %13 = icmp eq i32 %12, 1
  %14 = select i1 %13, i64 20, i64 0
  call void @llvm.lifetime.end.p0(i64 8, ptr %3) #22
  ret i64 %14
}